target datalayout = "e-m:e-p270:32:32-p271:32:32-p272:64:64-i64:64-i128:128-f80:128-n8:16:32:64-S128"
target triple = "x86_64-pc-linux-gnu"

%struct.ParseState = type { ptr, ptr, i32, i32, ptr, ptr, ptr, ptr, ptr, ptr, i8, ptr, ptr, ptr, ptr, ptr, ptr, i8, ptr, i32, i32, ptr, ptr, i8, i8, ptr, i8, i8, i8, i8, i8, ptr, ptr, ptr, ptr, ptr, ptr }
%struct.ForEachState = type { ptr, i32 }
%struct.List = type { i32, i32, i32, ptr, [0 x %union.ListCell] }
%union.ListCell = type { ptr }
%struct.TargetEntry = type { %struct.Expr, ptr, i16, ptr, i32, i32, i16, i8 }
%struct.Expr = type { i32 }
%struct.ParseNamespaceItem = type { ptr, ptr, i32, ptr, ptr, i8, i8, i8, i8, i32 }
%struct.ResTarget = type { i32, ptr, ptr, ptr, i32 }
%struct.RTEPermissionInfo = type { i32, i32, i8, i64, i32, ptr, ptr, ptr }
%struct.RelationData = type { %struct.RelFileLocator, ptr, i32, i32, i8, i8, i8, i8, i8, i32, i32, i32, i32, ptr, ptr, i32, %struct.LockInfoData, ptr, ptr, ptr, ptr, ptr, i8, ptr, ptr, ptr, ptr, ptr, ptr, i32, ptr, i8, ptr, ptr, i32, i8, i32, ptr, i8, ptr, ptr, ptr, ptr, ptr, ptr, ptr, i32, ptr, ptr, ptr, ptr, ptr, ptr, ptr, ptr, ptr, ptr, ptr, ptr, ptr, ptr, ptr, ptr, ptr, ptr, ptr, i32, i8, ptr }
%struct.RelFileLocator = type { i32, i32, i32 }
%struct.LockInfoData = type { %struct.LockRelId }
%struct.LockRelId = type { i32, i32 }
%struct.FormData_pg_class = type { i32, %struct.nameData, i32, i32, i32, i32, i32, i32, i32, i32, float, i32, i32, i8, i8, i8, i8, i16, i16, i8, i8, i8, i8, i8, i8, i8, i8, i32, i32, i32 }
%struct.nameData = type { [64 x i8] }
%struct.Alias = type { i32, ptr, ptr }

@.str.1 = private unnamed_addr constant [10 x i8] c"analyze.c\00", align 1
@.str.4 = private unnamed_addr constant [48 x i8] c"UPDATE target count mismatch --- internal error\00", align 1
@__func__.transformUpdateTargetList = private unnamed_addr constant [26 x i8] c"transformUpdateTargetList\00", align 1
@.str.5 = private unnamed_addr constant [44 x i8] c"column \22%s\22 of relation \22%s\22 does not exist\00", align 1
@.str.6 = private unnamed_addr constant [63 x i8] c"SET target columns cannot be qualified with the relation name.\00", align 1

; Function Attrs: inlinehint nounwind uwtable
define internal ptr @lnext(ptr noundef %0, ptr noundef %1) #3 {
  %3 = alloca ptr, align 8
  %4 = alloca ptr, align 8
  %5 = alloca ptr, align 8
  store ptr %0, ptr %4, align 8
  store ptr %1, ptr %5, align 8
  %6 = load ptr, ptr %5, align 8
  %7 = getelementptr inbounds nuw %union.ListCell, ptr %6, i32 1
  store ptr %7, ptr %5, align 8
  %8 = load ptr, ptr %5, align 8
  %9 = load ptr, ptr %4, align 8
  %10 = getelementptr inbounds nuw %struct.List, ptr %9, i32 0, i32 3
  %11 = load ptr, ptr %10, align 8
  %12 = load ptr, ptr %4, align 8
  %13 = getelementptr inbounds nuw %struct.List, ptr %12, i32 0, i32 1
  %14 = load i32, ptr %13, align 4
  %15 = sext i32 %14 to i64
  %16 = getelementptr inbounds %union.ListCell, ptr %11, i64 %15
  %17 = icmp ult ptr %8, %16
  br i1 %17, label %18, label %20

18:                                               ; preds = %2
  %19 = load ptr, ptr %5, align 8
  store ptr %19, ptr %3, align 8
  br label %21

20:                                               ; preds = %2
  store ptr null, ptr %3, align 8
  br label %21

21:                                               ; preds = %20, %18
  %22 = load ptr, ptr %3, align 8
  ret ptr %22
}

; Function Attrs: inlinehint nounwind uwtable
define internal ptr @list_head(ptr noundef %0) #3 {
  %2 = alloca ptr, align 8
  store ptr %0, ptr %2, align 8
  %3 = load ptr, ptr %2, align 8
  %4 = icmp ne ptr %3, null
  br i1 %4, label %5, label %10

5:                                                ; preds = %1
  %6 = load ptr, ptr %2, align 8
  %7 = getelementptr inbounds nuw %struct.List, ptr %6, i32 0, i32 3
  %8 = load ptr, ptr %7, align 8
  %9 = getelementptr inbounds %union.ListCell, ptr %8, i64 0
  br label %11

10:                                               ; preds = %1
  br label %11

11:                                               ; preds = %10, %5
  %12 = phi ptr [ %9, %5 ], [ null, %10 ]
  ret ptr %12
}

; Function Attrs: nounwind uwtable
define dso_local ptr @transformUpdateTargetList(ptr noundef %0, ptr noundef %1) #0 {
  %3 = alloca ptr, align 8
  %4 = alloca ptr, align 8
  %5 = alloca ptr, align 8
  %6 = alloca ptr, align 8
  %7 = alloca ptr, align 8
  %8 = alloca ptr, align 8
  %9 = alloca %struct.ForEachState, align 8
  %10 = alloca i32, align 4
  %11 = alloca ptr, align 8
  %12 = alloca ptr, align 8
  %13 = alloca i32, align 4
  store ptr %0, ptr %3, align 8
  store ptr %1, ptr %4, align 8
  call void @llvm.lifetime.start.p0(i64 8, ptr %5) #8
  store ptr null, ptr %5, align 8
  call void @llvm.lifetime.start.p0(i64 8, ptr %6) #8
  call void @llvm.lifetime.start.p0(i64 8, ptr %7) #8
  call void @llvm.lifetime.start.p0(i64 8, ptr %8) #8
  %14 = load ptr, ptr %3, align 8
  %15 = load ptr, ptr %4, align 8
  %16 = call ptr @transformTargetList(ptr noundef %14, ptr noundef %15, i32 noundef 16)
  store ptr %16, ptr %5, align 8
  %17 = load ptr, ptr %3, align 8
  %18 = getelementptr inbounds nuw %struct.ParseState, ptr %17, i32 0, i32 20
  %19 = load i32, ptr %18, align 4
  %20 = load ptr, ptr %3, align 8
  %21 = getelementptr inbounds nuw %struct.ParseState, ptr %20, i32 0, i32 14
  %22 = load ptr, ptr %21, align 8
  %23 = getelementptr inbounds nuw %struct.RelationData, ptr %22, i32 0, i32 13
  %24 = load ptr, ptr %23, align 8
  %25 = getelementptr inbounds nuw %struct.FormData_pg_class, ptr %24, i32 0, i32 17
  %26 = load i16, ptr %25, align 4
  %27 = sext i16 %26 to i32
  %28 = icmp sle i32 %19, %27
  br i1 %28, label %29, label %41

29:                                               ; preds = %2
  %30 = load ptr, ptr %3, align 8
  %31 = getelementptr inbounds nuw %struct.ParseState, ptr %30, i32 0, i32 14
  %32 = load ptr, ptr %31, align 8
  %33 = getelementptr inbounds nuw %struct.RelationData, ptr %32, i32 0, i32 13
  %34 = load ptr, ptr %33, align 8
  %35 = getelementptr inbounds nuw %struct.FormData_pg_class, ptr %34, i32 0, i32 17
  %36 = load i16, ptr %35, align 4
  %37 = sext i16 %36 to i32
  %38 = add i32 %37, 1
  %39 = load ptr, ptr %3, align 8
  %40 = getelementptr inbounds nuw %struct.ParseState, ptr %39, i32 0, i32 20
  store i32 %38, ptr %40, align 4
  br label %41

41:                                               ; preds = %29, %2
  %42 = load ptr, ptr %3, align 8
  %43 = getelementptr inbounds nuw %struct.ParseState, ptr %42, i32 0, i32 15
  %44 = load ptr, ptr %43, align 8
  %45 = getelementptr inbounds nuw %struct.ParseNamespaceItem, ptr %44, i32 0, i32 3
  %46 = load ptr, ptr %45, align 8
  store ptr %46, ptr %6, align 8
  %47 = load ptr, ptr %4, align 8
  %48 = call ptr @list_head(ptr noundef %47)
  store ptr %48, ptr %7, align 8
  call void @llvm.lifetime.start.p0(i64 16, ptr %9) #8
  %49 = getelementptr inbounds nuw %struct.ForEachState, ptr %9, i32 0, i32 0
  %50 = load ptr, ptr %5, align 8
  store ptr %50, ptr %49, align 8
  %51 = getelementptr inbounds nuw %struct.ForEachState, ptr %9, i32 0, i32 1
  store i32 0, ptr %51, align 8
  %52 = getelementptr i8, ptr %9, i64 12
  call void @llvm.memset.p0.i64(ptr align 4 %52, i8 0, i64 4, i1 false)
  br label %53

53:                                               ; preds = %198, %41
  %54 = getelementptr inbounds nuw %struct.ForEachState, ptr %9, i32 0, i32 0
  %55 = load ptr, ptr %54, align 8
  %56 = icmp ne ptr %55, null
  br i1 %56, label %57, label %74

57:                                               ; preds = %53
  %58 = getelementptr inbounds nuw %struct.ForEachState, ptr %9, i32 0, i32 1
  %59 = load i32, ptr %58, align 8
  %60 = getelementptr inbounds nuw %struct.ForEachState, ptr %9, i32 0, i32 0
  %61 = load ptr, ptr %60, align 8
  %62 = getelementptr inbounds nuw %struct.List, ptr %61, i32 0, i32 1
  %63 = load i32, ptr %62, align 4
  %64 = icmp slt i32 %59, %63
  br i1 %64, label %65, label %74

65:                                               ; preds = %57
  %66 = getelementptr inbounds nuw %struct.ForEachState, ptr %9, i32 0, i32 0
  %67 = load ptr, ptr %66, align 8
  %68 = getelementptr inbounds nuw %struct.List, ptr %67, i32 0, i32 3
  %69 = load ptr, ptr %68, align 8
  %70 = getelementptr inbounds nuw %struct.ForEachState, ptr %9, i32 0, i32 1
  %71 = load i32, ptr %70, align 8
  %72 = sext i32 %71 to i64
  %73 = getelementptr inbounds %union.ListCell, ptr %69, i64 %72
  store ptr %73, ptr %8, align 8
  br label %75

74:                                               ; preds = %57, %53
  store ptr null, ptr %8, align 8
  br label %75

75:                                               ; preds = %74, %65
  %76 = phi i32 [ 1, %65 ], [ 0, %74 ]
  %77 = icmp ne i32 %76, 0
  br i1 %77, label %79, label %78

78:                                               ; preds = %75
  store i32 2, ptr %10, align 4
  call void @llvm.lifetime.end.p0(i64 16, ptr %9) #8
  br label %202

79:                                               ; preds = %75
  call void @llvm.lifetime.start.p0(i64 8, ptr %11) #8
  %80 = load ptr, ptr %8, align 8
  %81 = load ptr, ptr %80, align 8
  store ptr %81, ptr %11, align 8
  call void @llvm.lifetime.start.p0(i64 8, ptr %12) #8
  call void @llvm.lifetime.start.p0(i64 4, ptr %13) #8
  %82 = load ptr, ptr %11, align 8
  %83 = getelementptr inbounds nuw %struct.TargetEntry, ptr %82, i32 0, i32 7
  %84 = load i8, ptr %83, align 2, !range !4, !noundef !5
  %85 = trunc i8 %84 to i1
  br i1 %85, label %86, label %96

86:                                               ; preds = %79
  %87 = load ptr, ptr %3, align 8
  %88 = getelementptr inbounds nuw %struct.ParseState, ptr %87, i32 0, i32 20
  %89 = load i32, ptr %88, align 4
  %90 = add i32 %89, 1
  store i32 %90, ptr %88, align 4
  %91 = trunc i32 %89 to i16
  %92 = load ptr, ptr %11, align 8
  %93 = getelementptr inbounds nuw %struct.TargetEntry, ptr %92, i32 0, i32 2
  store i16 %91, ptr %93, align 8
  %94 = load ptr, ptr %11, align 8
  %95 = getelementptr inbounds nuw %struct.TargetEntry, ptr %94, i32 0, i32 3
  store ptr null, ptr %95, align 8
  store i32 4, ptr %10, align 4
  br label %195

96:                                               ; preds = %79
  %97 = load ptr, ptr %7, align 8
  %98 = icmp eq ptr %97, null
  br i1 %98, label %99, label %110

99:                                               ; preds = %96
  br label %100

100:                                              ; preds = %99
  br i1 true, label %101, label %103

101:                                              ; preds = %100
  %102 = call zeroext i1 @errstart_cold(i32 noundef 21, ptr noundef null) #9
  br i1 %102, label %105, label %107

103:                                              ; preds = %100
  %104 = call zeroext i1 @errstart(i32 noundef 21, ptr noundef null)
  br i1 %104, label %105, label %107

105:                                              ; preds = %103, %101
  %106 = call i32 (ptr, ...) @errmsg_internal(ptr noundef @.str.4)
  call void @errfinish(ptr noundef @.str.1, i32 noundef 2613, ptr noundef @__func__.transformUpdateTargetList)
  br label %107

107:                                              ; preds = %105, %103, %101
  unreachable

108:                                              ; No predecessors!
  br label %109

109:                                              ; preds = %108
  br label %110

110:                                              ; preds = %109, %96
  %111 = load ptr, ptr %7, align 8
  %112 = load ptr, ptr %111, align 8
  store ptr %112, ptr %12, align 8
  %113 = load ptr, ptr %3, align 8
  %114 = getelementptr inbounds nuw %struct.ParseState, ptr %113, i32 0, i32 14
  %115 = load ptr, ptr %114, align 8
  %116 = load ptr, ptr %12, align 8
  %117 = getelementptr inbounds nuw %struct.ResTarget, ptr %116, i32 0, i32 1
  %118 = load ptr, ptr %117, align 8
  %119 = call i32 @attnameAttNum(ptr noundef %115, ptr noundef %118, i1 noundef zeroext true)
  store i32 %119, ptr %13, align 4
  %120 = load i32, ptr %13, align 4
  %121 = icmp eq i32 %120, 0
  br i1 %121, label %122, label %171

122:                                              ; preds = %110
  br label %123

123:                                              ; preds = %122
  br i1 true, label %124, label %126

124:                                              ; preds = %123
  %125 = call zeroext i1 @errstart_cold(i32 noundef 21, ptr noundef null) #9
  br i1 %125, label %128, label %168

126:                                              ; preds = %123
  %127 = call zeroext i1 @errstart(i32 noundef 21, ptr noundef null)
  br i1 %127, label %128, label %168

128:                                              ; preds = %126, %124
  %129 = call i32 @errcode(i32 noundef 50360452)
  %130 = load ptr, ptr %12, align 8
  %131 = getelementptr inbounds nuw %struct.ResTarget, ptr %130, i32 0, i32 1
  %132 = load ptr, ptr %131, align 8
  %133 = load ptr, ptr %3, align 8
  %134 = getelementptr inbounds nuw %struct.ParseState, ptr %133, i32 0, i32 14
  %135 = load ptr, ptr %134, align 8
  %136 = getelementptr inbounds nuw %struct.RelationData, ptr %135, i32 0, i32 13
  %137 = load ptr, ptr %136, align 8
  %138 = getelementptr inbounds nuw %struct.FormData_pg_class, ptr %137, i32 0, i32 1
  %139 = getelementptr inbounds nuw %struct.nameData, ptr %138, i32 0, i32 0
  %140 = getelementptr inbounds [64 x i8], ptr %139, i64 0, i64 0
  %141 = call i32 (ptr, ...) @errmsg(ptr noundef @.str.5, ptr noundef %132, ptr noundef %140)
  %142 = load ptr, ptr %12, align 8
  %143 = getelementptr inbounds nuw %struct.ResTarget, ptr %142, i32 0, i32 2
  %144 = load ptr, ptr %143, align 8
  %145 = icmp ne ptr %144, null
  br i1 %145, label %146, label %161

146:                                              ; preds = %128
  %147 = load ptr, ptr %12, align 8
  %148 = getelementptr inbounds nuw %struct.ResTarget, ptr %147, i32 0, i32 1
  %149 = load ptr, ptr %148, align 8
  %150 = load ptr, ptr %3, align 8
  %151 = getelementptr inbounds nuw %struct.ParseState, ptr %150, i32 0, i32 15
  %152 = load ptr, ptr %151, align 8
  %153 = getelementptr inbounds nuw %struct.ParseNamespaceItem, ptr %152, i32 0, i32 0
  %154 = load ptr, ptr %153, align 8
  %155 = getelementptr inbounds nuw %struct.Alias, ptr %154, i32 0, i32 1
  %156 = load ptr, ptr %155, align 8
  %157 = call i32 @strcmp(ptr noundef %149, ptr noundef %156) #10
  %158 = icmp eq i32 %157, 0
  br i1 %158, label %159, label %161

159:                                              ; preds = %146
  %160 = call i32 (ptr, ...) @errhint(ptr noundef @.str.6)
  br label %162

161:                                              ; preds = %146, %128
  br label %162

162:                                              ; preds = %161, %159
  %163 = load ptr, ptr %3, align 8
  %164 = load ptr, ptr %12, align 8
  %165 = getelementptr inbounds nuw %struct.ResTarget, ptr %164, i32 0, i32 4
  %166 = load i32, ptr %165, align 8
  %167 = call i32 @parser_errposition(ptr noundef %163, i32 noundef %166)
  call void @errfinish(ptr noundef @.str.1, i32 noundef 2627, ptr noundef @__func__.transformUpdateTargetList)
  br label %168

168:                                              ; preds = %162, %126, %124
  unreachable

169:                                              ; No predecessors!
  br label %170

170:                                              ; preds = %169
  br label %171

171:                                              ; preds = %170, %110
  %172 = load ptr, ptr %3, align 8
  %173 = load ptr, ptr %11, align 8
  %174 = load ptr, ptr %12, align 8
  %175 = getelementptr inbounds nuw %struct.ResTarget, ptr %174, i32 0, i32 1
  %176 = load ptr, ptr %175, align 8
  %177 = load i32, ptr %13, align 4
  %178 = load ptr, ptr %12, align 8
  %179 = getelementptr inbounds nuw %struct.ResTarget, ptr %178, i32 0, i32 2
  %180 = load ptr, ptr %179, align 8
  %181 = load ptr, ptr %12, align 8
  %182 = getelementptr inbounds nuw %struct.ResTarget, ptr %181, i32 0, i32 4
  %183 = load i32, ptr %182, align 8
  call void @updateTargetListEntry(ptr noundef %172, ptr noundef %173, ptr noundef %176, i32 noundef %177, ptr noundef %180, i32 noundef %183)
  %184 = load ptr, ptr %6, align 8
  %185 = getelementptr inbounds nuw %struct.RTEPermissionInfo, ptr %184, i32 0, i32 7
  %186 = load ptr, ptr %185, align 8
  %187 = load i32, ptr %13, align 4
  %188 = sub i32 %187, -7
  %189 = call ptr @bms_add_member(ptr noundef %186, i32 noundef %188)
  %190 = load ptr, ptr %6, align 8
  %191 = getelementptr inbounds nuw %struct.RTEPermissionInfo, ptr %190, i32 0, i32 7
  store ptr %189, ptr %191, align 8
  %192 = load ptr, ptr %4, align 8
  %193 = load ptr, ptr %7, align 8
  %194 = call ptr @lnext(ptr noundef %192, ptr noundef %193)
  store ptr %194, ptr %7, align 8
  store i32 0, ptr %10, align 4
  br label %195

195:                                              ; preds = %171, %86
  call void @llvm.lifetime.end.p0(i64 4, ptr %13) #8
  call void @llvm.lifetime.end.p0(i64 8, ptr %12) #8
  call void @llvm.lifetime.end.p0(i64 8, ptr %11) #8
  %196 = load i32, ptr %10, align 4
  switch i32 %196, label %218 [
    i32 0, label %197
    i32 4, label %198
  ]

197:                                              ; preds = %195
  br label %198

198:                                              ; preds = %197, %195
  %199 = getelementptr inbounds nuw %struct.ForEachState, ptr %9, i32 0, i32 1
  %200 = load i32, ptr %199, align 8
  %201 = add i32 %200, 1
  store i32 %201, ptr %199, align 8
  br label %53, !llvm.loop !32

202:                                              ; preds = %78
  %203 = load ptr, ptr %7, align 8
  %204 = icmp ne ptr %203, null
  br i1 %204, label %205, label %216

205:                                              ; preds = %202
  br label %206

206:                                              ; preds = %205
  br i1 true, label %207, label %209

207:                                              ; preds = %206
  %208 = call zeroext i1 @errstart_cold(i32 noundef 21, ptr noundef null) #9
  br i1 %208, label %211, label %213

209:                                              ; preds = %206
  %210 = call zeroext i1 @errstart(i32 noundef 21, ptr noundef null)
  br i1 %210, label %211, label %213

211:                                              ; preds = %209, %207
  %212 = call i32 (ptr, ...) @errmsg_internal(ptr noundef @.str.4)
  call void @errfinish(ptr noundef @.str.1, i32 noundef 2641, ptr noundef @__func__.transformUpdateTargetList)
  br label %213

213:                                              ; preds = %211, %209, %207
  unreachable

214:                                              ; No predecessors!
  br label %215

215:                                              ; preds = %214
  br label %216

216:                                              ; preds = %215, %202
  %217 = load ptr, ptr %5, align 8
  store i32 1, ptr %10, align 4
  call void @llvm.lifetime.end.p0(i64 8, ptr %8) #8
  call void @llvm.lifetime.end.p0(i64 8, ptr %7) #8
  call void @llvm.lifetime.end.p0(i64 8, ptr %6) #8
  call void @llvm.lifetime.end.p0(i64 8, ptr %5) #8
  ret ptr %217

218:                                              ; preds = %195
  unreachable
}