; Function Attrs: nounwind uwtable
define dso_local ptr @transformUpdateTargetList(ptr noundef %0, ptr noundef %1) local_unnamed_addr #0 {
  %3 = tail call ptr @transformTargetList(ptr noundef %0, ptr noundef %1, i32 noundef 16) #11
  %4 = getelementptr inbounds nuw i8, ptr %0, i64 148
  %5 = load i32, ptr %4, align 4
  %6 = getelementptr inbounds nuw i8, ptr %0, i64 104
  %7 = load ptr, ptr %6, align 8
  %8 = getelementptr inbounds nuw i8, ptr %7, i64 56
  %9 = load ptr, ptr %8, align 8
  %10 = getelementptr inbounds nuw i8, ptr %9, i64 116
  %11 = load i16, ptr %10, align 4
  %12 = sext i16 %11 to i32
  %.not = icmp sgt i32 %5, %12
  br i1 %.not, label %15, label %13

13:                                               ; preds = %2
  %14 = add nsw i32 %12, 1
  store i32 %14, ptr %4, align 4
  br label %15

15:                                               ; preds = %13, %2
  %16 = getelementptr inbounds nuw i8, ptr %0, i64 112
  %17 = load ptr, ptr %16, align 8
  %18 = getelementptr inbounds nuw i8, ptr %17, i64 24
  %19 = load ptr, ptr %18, align 8
  %.not.i = icmp eq ptr %1, null
  br i1 %.not.i, label %list_head.exit, label %20

20:                                               ; preds = %15
  %21 = getelementptr inbounds nuw i8, ptr %1, i64 16
  %22 = load ptr, ptr %21, align 8
  br label %list_head.exit

list_head.exit:                                   ; preds = %15, %20
  %23 = phi ptr [ %22, %20 ], [ null, %15 ]
  %.not46 = icmp eq ptr %3, null
  br i1 %.not46, label %._crit_edge, label %.lr.ph

.lr.ph:                                           ; preds = %list_head.exit
  %24 = getelementptr inbounds nuw i8, ptr %3, i64 4
  %25 = getelementptr inbounds nuw i8, ptr %3, i64 16
  %26 = getelementptr inbounds nuw i8, ptr %19, i64 48
  %27 = getelementptr i8, ptr %1, i64 4
  %28 = getelementptr i8, ptr %1, i64 16
  %29 = load i32, ptr %24, align 4
  %30 = icmp sgt i32 %29, 0
  br i1 %30, label %.lr.ph67, label %._crit_edge

._crit_edge:                                      ; preds = %91, %.lr.ph, %list_head.exit
  %.0.lcssa = phi ptr [ %23, %list_head.exit ], [ %23, %.lr.ph ], [ %.1, %91 ]
  %.not48 = icmp eq ptr %.0.lcssa, null
  br i1 %.not48, label %98, label %95

.lr.ph67:                                         ; preds = %.lr.ph, %91
  %indvars.iv = phi i64 [ %indvars.iv.next, %91 ], [ 0, %.lr.ph ]
  %.05765 = phi ptr [ %.1, %91 ], [ %23, %.lr.ph ]
  %31 = load ptr, ptr %25, align 8
  %32 = getelementptr inbounds nuw %union.ListCell, ptr %31, i64 %indvars.iv
  %33 = load ptr, ptr %32, align 8
  %34 = getelementptr inbounds nuw i8, ptr %33, i64 42
  %35 = load i8, ptr %34, align 2, !range !5, !noundef !4
  %36 = trunc nuw i8 %35 to i1
  br i1 %36, label %37, label %43

37:                                               ; preds = %.lr.ph67
  %38 = load i32, ptr %4, align 4
  %39 = add i32 %38, 1
  store i32 %39, ptr %4, align 4
  %40 = trunc i32 %38 to i16
  %41 = getelementptr inbounds nuw i8, ptr %33, i64 16
  store i16 %40, ptr %41, align 8
  %42 = getelementptr inbounds nuw i8, ptr %33, i64 24
  store ptr null, ptr %42, align 8
  br label %91

43:                                               ; preds = %.lr.ph67
  %44 = icmp eq ptr %.05765, null
  br i1 %44, label %.split, label %47

.split:                                           ; preds = %43
  %45 = tail call zeroext i1 @errstart_cold(i32 noundef 21, ptr noundef null) #12
  tail call void @llvm.assume(i1 %45)
  %46 = tail call i32 (ptr, ...) @errmsg_internal(ptr noundef nonnull @.str.4) #11
  tail call void @errfinish(ptr noundef nonnull @.str.1, i32 noundef 2613, ptr noundef nonnull @__func__.transformUpdateTargetList) #11
  unreachable

47:                                               ; preds = %43
  %48 = load ptr, ptr %.05765, align 8
  %49 = load ptr, ptr %6, align 8
  %50 = getelementptr inbounds nuw i8, ptr %48, i64 8
  %51 = load ptr, ptr %50, align 8
  %52 = tail call i32 @attnameAttNum(ptr noundef %49, ptr noundef %51, i1 noundef zeroext true) #11
  %53 = icmp eq i32 %52, 0
  br i1 %53, label %.split61, label %78

.split61:                                         ; preds = %47
  %54 = tail call zeroext i1 @errstart_cold(i32 noundef 21, ptr noundef null) #12
  tail call void @llvm.assume(i1 %54)
  %55 = tail call i32 @errcode(i32 noundef 50360452) #11
  %56 = load ptr, ptr %50, align 8
  %57 = load ptr, ptr %6, align 8
  %58 = getelementptr inbounds nuw i8, ptr %57, i64 56
  %59 = load ptr, ptr %58, align 8
  %60 = getelementptr inbounds nuw i8, ptr %59, i64 4
  %61 = tail call i32 (ptr, ...) @errmsg(ptr noundef nonnull @.str.5, ptr noundef %56, ptr noundef nonnull %60) #11
  %62 = getelementptr inbounds nuw i8, ptr %48, i64 16
  %63 = load ptr, ptr %62, align 8
  %.not49 = icmp eq ptr %63, null
  br i1 %.not49, label %74, label %64

64:                                               ; preds = %.split61
  %65 = load ptr, ptr %50, align 8
  %66 = load ptr, ptr %16, align 8
  %67 = load ptr, ptr %66, align 8
  %68 = getelementptr inbounds nuw i8, ptr %67, i64 8
  %69 = load ptr, ptr %68, align 8
  %70 = tail call i32 @strcmp(ptr noundef nonnull dereferenceable(1) %65, ptr noundef nonnull dereferenceable(1) %69) #13
  %71 = icmp eq i32 %70, 0
  br i1 %71, label %72, label %74

72:                                               ; preds = %64
  %73 = tail call i32 (ptr, ...) @errhint(ptr noundef nonnull @.str.6) #11
  br label %74

74:                                               ; preds = %.split61, %64, %72
  %75 = getelementptr inbounds nuw i8, ptr %48, i64 32
  %76 = load i32, ptr %75, align 8
  %77 = tail call i32 @parser_errposition(ptr noundef nonnull %0, i32 noundef %76) #11
  tail call void @errfinish(ptr noundef nonnull @.str.1, i32 noundef 2627, ptr noundef nonnull @__func__.transformUpdateTargetList) #11
  unreachable

78:                                               ; preds = %47
  %79 = load ptr, ptr %50, align 8
  %80 = getelementptr inbounds nuw i8, ptr %48, i64 16
  %81 = load ptr, ptr %80, align 8
  %82 = getelementptr inbounds nuw i8, ptr %48, i64 32
  %83 = load i32, ptr %82, align 8
  tail call void @updateTargetListEntry(ptr noundef nonnull %0, ptr noundef nonnull %33, ptr noundef %79, i32 noundef %52, ptr noundef %81, i32 noundef %83) #11
  %84 = load ptr, ptr %26, align 8
  %85 = add i32 %52, 7
  %86 = tail call ptr @bms_add_member(ptr noundef %84, i32 noundef %85) #11
  store ptr %86, ptr %26, align 8
  %.val = load i32, ptr %27, align 4
  %.val50 = load ptr, ptr %28, align 8
  %87 = getelementptr inbounds nuw i8, ptr %.05765, i64 8
  %88 = sext i32 %.val to i64
  %89 = getelementptr inbounds %union.ListCell, ptr %.val50, i64 %88
  %90 = icmp ult ptr %87, %89
  %..i = select i1 %90, ptr %87, ptr null
  br label %91

91:                                               ; preds = %78, %37
  %.1 = phi ptr [ %.05765, %37 ], [ %..i, %78 ]
  %indvars.iv.next = add nuw nsw i64 %indvars.iv, 1
  %92 = load i32, ptr %24, align 4
  %93 = sext i32 %92 to i64
  %94 = icmp slt i64 %indvars.iv.next, %93
  br i1 %94, label %.lr.ph67, label %._crit_edge

95:                                               ; preds = %._crit_edge
  %96 = tail call zeroext i1 @errstart_cold(i32 noundef 21, ptr noundef null) #12
  tail call void @llvm.assume(i1 %96)
  %97 = tail call i32 (ptr, ...) @errmsg_internal(ptr noundef nonnull @.str.4) #11
  tail call void @errfinish(ptr noundef nonnull @.str.1, i32 noundef 2641, ptr noundef nonnull @__func__.transformUpdateTargetList) #11
  unreachable

98:                                               ; preds = %._crit_edge
  ret ptr %3
}